; Function Attrs: mustprogress nofree norecurse nosync nounwind willreturn memory(argmem: read) uwtable
define dso_local { ptr, i64 } @_ZNK4absl13cord_internal9CordzInfo14GetParentStackEv(ptr noundef nonnull align 8 dereferenceable(1332) %this) local_unnamed_addr #5 align 2 {
entry:
  %parent_stack_ = getelementptr inbounds i8, ptr %this, i64 584
  %parent_stack_depth_ = getelementptr inbounds i8, ptr %this, i64 1104
  %0 = load i64, ptr %parent_stack_depth_, align 8
  %.fca.0.insert.i = insertvalue { ptr, i64 } poison, ptr %parent_stack_, 0
  %.fca.1.insert.i = insertvalue { ptr, i64 } %.fca.0.insert.i, i64 %0, 1
  ret { ptr, i64 } %.fca.1.insert.i
}